; Function Attrs: nounwind uwtable
define internal zeroext i1 @Wayland_SetRelativeMouseMode(i1 zeroext %0) #0 {
  %2 = tail call ptr @SDL_GetVideoDevice() #6
  %3 = getelementptr inbounds nuw i8, ptr %2, i64 1656
  %4 = load ptr, ptr %3, align 8
  %5 = getelementptr inbounds nuw i8, ptr %4, i64 72
  %6 = load ptr, ptr %5, align 8
  %.not = icmp eq ptr %6, null
  br i1 %.not, label %7, label %9

7:                                                ; preds = %1
  %8 = tail call zeroext i1 (ptr, ...) @SDL_SetError_REAL(ptr noundef nonnull @.str.1) #6
  br label %15

9:                                                ; preds = %1
  %10 = getelementptr inbounds nuw i8, ptr %4, i64 80
  %11 = load ptr, ptr %10, align 8
  %.not5 = icmp eq ptr %11, null
  br i1 %.not5, label %12, label %14

12:                                               ; preds = %9
  %13 = tail call zeroext i1 (ptr, ...) @SDL_SetError_REAL(ptr noundef nonnull @.str.2) #6
  br label %15

14:                                               ; preds = %9
  tail call void @Wayland_DisplayUpdatePointerGrabs(ptr noundef nonnull %4, ptr noundef null) #6
  br label %15

15:                                               ; preds = %14, %12, %7
  %.0 = phi i1 [ true, %14 ], [ %13, %12 ], [ %8, %7 ]
  ret i1 %.0
}